target datalayout = "e-m:e-p270:32:32-p271:32:32-p272:64:64-i64:64-i128:128-f80:128-n8:16:32:64-S128"
target triple = "x86_64-pc-linux-gnu"

%struct._excepthandler = type { i32, %union.anon.65, i32, i32, i32, i32 }
%union.anon.65 = type { %struct.anon.66 }
%struct.anon.66 = type { ptr, ptr, ptr }

; Function Attrs: nounwind uwtable
define hidden ptr @_PyAST_ExceptHandler(ptr noundef %0, ptr noundef %1, ptr noundef %2, i32 noundef %3, i32 noundef %4, i32 noundef %5, i32 noundef %6, ptr noundef %7) #0 {
  %9 = alloca ptr, align 8
  %10 = alloca ptr, align 8
  %11 = alloca ptr, align 8
  %12 = alloca ptr, align 8
  %13 = alloca i32, align 4
  %14 = alloca i32, align 4
  %15 = alloca i32, align 4
  %16 = alloca i32, align 4
  %17 = alloca ptr, align 8
  %18 = alloca ptr, align 8
  %19 = alloca i32, align 4
  store ptr %0, ptr %10, align 8, !tbaa !34
  store ptr %1, ptr %11, align 8, !tbaa !13
  store ptr %2, ptr %12, align 8, !tbaa !26
  store i32 %3, ptr %13, align 4, !tbaa !38
  store i32 %4, ptr %14, align 4, !tbaa !38
  store i32 %5, ptr %15, align 4, !tbaa !38
  store i32 %6, ptr %16, align 4, !tbaa !38
  store ptr %7, ptr %17, align 8, !tbaa !24
  call void @llvm.lifetime.start.p0(i64 8, ptr %18) #8
  %20 = load ptr, ptr %17, align 8, !tbaa !24
  %21 = call ptr @_PyArena_Malloc(ptr noundef %20, i64 noundef 48)
  store ptr %21, ptr %18, align 8, !tbaa !60
  %22 = load ptr, ptr %18, align 8, !tbaa !60
  %23 = icmp ne ptr %22, null
  br i1 %23, label %25, label %24

24:                                               ; preds = %8
  store ptr null, ptr %9, align 8
  store i32 1, ptr %19, align 4
  br label %53

25:                                               ; preds = %8
  %26 = load ptr, ptr %18, align 8, !tbaa !60
  %27 = getelementptr inbounds nuw %struct._excepthandler, ptr %26, i32 0, i32 0
  store i32 1, ptr %27, align 8, !tbaa !62
  %28 = load ptr, ptr %10, align 8, !tbaa !34
  %29 = load ptr, ptr %18, align 8, !tbaa !60
  %30 = getelementptr inbounds nuw %struct._excepthandler, ptr %29, i32 0, i32 1
  %31 = getelementptr inbounds nuw %struct.anon.66, ptr %30, i32 0, i32 0
  store ptr %28, ptr %31, align 8, !tbaa !21
  %32 = load ptr, ptr %11, align 8, !tbaa !13
  %33 = load ptr, ptr %18, align 8, !tbaa !60
  %34 = getelementptr inbounds nuw %struct._excepthandler, ptr %33, i32 0, i32 1
  %35 = getelementptr inbounds nuw %struct.anon.66, ptr %34, i32 0, i32 1
  store ptr %32, ptr %35, align 8, !tbaa !21
  %36 = load ptr, ptr %12, align 8, !tbaa !26
  %37 = load ptr, ptr %18, align 8, !tbaa !60
  %38 = getelementptr inbounds nuw %struct._excepthandler, ptr %37, i32 0, i32 1
  %39 = getelementptr inbounds nuw %struct.anon.66, ptr %38, i32 0, i32 2
  store ptr %36, ptr %39, align 8, !tbaa !21
  %40 = load i32, ptr %13, align 4, !tbaa !38
  %41 = load ptr, ptr %18, align 8, !tbaa !60
  %42 = getelementptr inbounds nuw %struct._excepthandler, ptr %41, i32 0, i32 2
  store i32 %40, ptr %42, align 8, !tbaa !64
  %43 = load i32, ptr %14, align 4, !tbaa !38
  %44 = load ptr, ptr %18, align 8, !tbaa !60
  %45 = getelementptr inbounds nuw %struct._excepthandler, ptr %44, i32 0, i32 3
  store i32 %43, ptr %45, align 4, !tbaa !65
  %46 = load i32, ptr %15, align 4, !tbaa !38
  %47 = load ptr, ptr %18, align 8, !tbaa !60
  %48 = getelementptr inbounds nuw %struct._excepthandler, ptr %47, i32 0, i32 4
  store i32 %46, ptr %48, align 8, !tbaa !66
  %49 = load i32, ptr %16, align 4, !tbaa !38
  %50 = load ptr, ptr %18, align 8, !tbaa !60
  %51 = getelementptr inbounds nuw %struct._excepthandler, ptr %50, i32 0, i32 5
  store i32 %49, ptr %51, align 4, !tbaa !67
  %52 = load ptr, ptr %18, align 8, !tbaa !60
  store ptr %52, ptr %9, align 8
  store i32 1, ptr %19, align 4
  br label %53

53:                                               ; preds = %25, %24
  call void @llvm.lifetime.end.p0(i64 8, ptr %18) #8
  %54 = load ptr, ptr %9, align 8
  ret ptr %54
}